target datalayout = "e-m:e-p270:32:32-p271:32:32-p272:64:64-i64:64-i128:128-f80:128-n8:16:32:64-S128"
target triple = "x86_64-unknown-linux-gnu"

%"class.Imath_3_2::Vec3" = type { float, float, float }
%"class.Imf_3_2::RgbaOutputFile::ToYca" = type { %"class.std::mutex", ptr, i8, i8, i8, i32, i32, i32, i32, i32, i32, %"class.Imath_3_2::Vec3", ptr, [27 x ptr], ptr, ptr, i64, i64, i32, i32 }
%"class.std::mutex" = type { %"class.std::__mutex_base" }
%"class.std::__mutex_base" = type { %union.pthread_mutex_t }
%union.pthread_mutex_t = type { %struct.__pthread_mutex_s }
%struct.__pthread_mutex_s = type { i32, i32, i32, i32, i32, i16, i16, %struct.__pthread_internal_list }
%struct.__pthread_internal_list = type { ptr, ptr }
%"struct.Imf_3_2::Rgba" = type { %"class.Imath_3_2::half", %"class.Imath_3_2::half", %"class.Imath_3_2::half", %"class.Imath_3_2::half" }
%"class.Imath_3_2::half" = type { i16 }

; Function Attrs: mustprogress nounwind uwtable
define hidden void @_ZN7Imf_3_214RgbaOutputFile5ToYca9padTmpBufEv(ptr noundef nonnull align 8 dereferenceable(352) %this) #5 align 2 {
entry:
  %this.addr = alloca ptr, align 8
  %i = alloca i32, align 4
  store ptr %this, ptr %this.addr, align 8
  %this1 = load ptr, ptr %this.addr, align 8
  store i32 0, ptr %i, align 4
  br label %for.cond

for.cond:                                         ; preds = %for.inc, %entry
  %0 = load i32, ptr %i, align 4
  %cmp = icmp slt i32 %0, 13
  br i1 %cmp, label %for.body, label %for.end

for.body:                                         ; preds = %for.cond
  %_tmpBuf = getelementptr inbounds %"class.Imf_3_2::RgbaOutputFile::ToYca", ptr %this1, i32 0, i32 14
  %1 = load ptr, ptr %_tmpBuf, align 8
  %arrayidx = getelementptr inbounds %"struct.Imf_3_2::Rgba", ptr %1, i64 13
  %_tmpBuf2 = getelementptr inbounds %"class.Imf_3_2::RgbaOutputFile::ToYca", ptr %this1, i32 0, i32 14
  %2 = load ptr, ptr %_tmpBuf2, align 8
  %3 = load i32, ptr %i, align 4
  %idxprom = sext i32 %3 to i64
  %arrayidx3 = getelementptr inbounds %"struct.Imf_3_2::Rgba", ptr %2, i64 %idxprom
  call void @llvm.memcpy.p0.p0.i64(ptr align 2 %arrayidx3, ptr align 2 %arrayidx, i64 8, i1 false)
  %_tmpBuf4 = getelementptr inbounds %"class.Imf_3_2::RgbaOutputFile::ToYca", ptr %this1, i32 0, i32 14
  %4 = load ptr, ptr %_tmpBuf4, align 8
  %_width = getelementptr inbounds %"class.Imf_3_2::RgbaOutputFile::ToYca", ptr %this1, i32 0, i32 6
  %5 = load i32, ptr %_width, align 8
  %add = add nsw i32 %5, 13
  %sub = sub nsw i32 %add, 2
  %idxprom5 = sext i32 %sub to i64
  %arrayidx6 = getelementptr inbounds %"struct.Imf_3_2::Rgba", ptr %4, i64 %idxprom5
  %_tmpBuf7 = getelementptr inbounds %"class.Imf_3_2::RgbaOutputFile::ToYca", ptr %this1, i32 0, i32 14
  %6 = load ptr, ptr %_tmpBuf7, align 8
  %_width8 = getelementptr inbounds %"class.Imf_3_2::RgbaOutputFile::ToYca", ptr %this1, i32 0, i32 6
  %7 = load i32, ptr %_width8, align 8
  %add9 = add nsw i32 %7, 13
  %8 = load i32, ptr %i, align 4
  %add10 = add nsw i32 %add9, %8
  %idxprom11 = sext i32 %add10 to i64
  %arrayidx12 = getelementptr inbounds %"struct.Imf_3_2::Rgba", ptr %6, i64 %idxprom11
  call void @llvm.memcpy.p0.p0.i64(ptr align 2 %arrayidx12, ptr align 2 %arrayidx6, i64 8, i1 false)
  br label %for.inc

for.inc:                                          ; preds = %for.body
  %9 = load i32, ptr %i, align 4
  %inc = add nsw i32 %9, 1
  store i32 %inc, ptr %i, align 4
  br label %for.cond, !llvm.loop !14

for.end:                                          ; preds = %for.cond
  ret void
}