; Function Attrs: mustprogress nofree norecurse nosync nounwind memory(readwrite, inaccessiblemem: none) uwtable
define hidden void @_ZN7Imf_3_214RgbaOutputFile5ToYca9padTmpBufEv(ptr nocapture noundef nonnull readonly align 8 dereferenceable(352) %this) local_unnamed_addr #9 align 2 {
entry:
  %_tmpBuf = getelementptr inbounds i8, ptr %this, i64 312
  %_width = getelementptr inbounds i8, ptr %this, i64 56
  br label %for.body

for.body:                                         ; preds = %entry, %for.body
  %indvars.iv = phi i64 [ 0, %entry ], [ %indvars.iv.next, %for.body ]
  %0 = load ptr, ptr %_tmpBuf, align 8
  %arrayidx = getelementptr inbounds i8, ptr %0, i64 104
  %arrayidx3 = getelementptr inbounds %"struct.Imf_3_2::Rgba", ptr %0, i64 %indvars.iv
  %1 = load i64, ptr %arrayidx, align 2
  store i64 %1, ptr %arrayidx3, align 2
  %2 = load ptr, ptr %_tmpBuf, align 8
  %3 = load i32, ptr %_width, align 8
  %4 = sext i32 %3 to i64
  %5 = getelementptr %"struct.Imf_3_2::Rgba", ptr %2, i64 %4
  %arrayidx6 = getelementptr i8, ptr %5, i64 88
  %6 = trunc i64 %indvars.iv to i32
  %7 = add i32 %6, 13
  %add10 = add i32 %7, %3
  %idxprom11 = sext i32 %add10 to i64
  %arrayidx12 = getelementptr inbounds %"struct.Imf_3_2::Rgba", ptr %2, i64 %idxprom11
  %8 = load i64, ptr %arrayidx6, align 2
  store i64 %8, ptr %arrayidx12, align 2
  %indvars.iv.next = add nuw nsw i64 %indvars.iv, 1
  %exitcond.not = icmp eq i64 %indvars.iv.next, 13
  br i1 %exitcond.not, label %for.end, label %for.body, !llvm.loop !10

for.end:                                          ; preds = %for.body
  ret void
}